target datalayout = "e-m:e-p270:32:32-p271:32:32-p272:64:64-i64:64-i128:128-f80:128-n8:16:32:64-S128"
target triple = "x86_64-pc-linux-gnu"

%struct.lxb_html_tree = type { ptr, ptr, ptr, ptr, ptr, ptr, ptr, %struct.lxb_html_tree_pending_table_t, ptr, i8, i8, i8, i8, i8, i8, ptr, ptr, ptr, i32, i64 }
%struct.lxb_html_tree_pending_table_t = type { ptr, i8 }
%struct.lxb_html_token_t = type { ptr, ptr, i64, i64, ptr, ptr, ptr, ptr, ptr, i64, i64, i32 }

; Function Attrs: inlinehint nounwind uwtable
define internal zeroext i1 @lxb_html_tag_is_void(i64 noundef %0) #3 {
  %2 = alloca i1, align 1
  %3 = alloca i64, align 8
  store i64 %0, ptr %3, align 8, !tbaa !50
  %4 = load i64, ptr %3, align 8, !tbaa !50
  switch i64 %4, label %6 [
    i64 18, label %5
    i64 23, label %5
    i64 32, label %5
    i64 40, label %5
    i64 55, label %5
    i64 100, label %5
    i64 105, label %5
    i64 106, label %5
    i64 115, label %5
    i64 124, label %5
    i64 166, label %5
    i64 188, label %5
    i64 194, label %5
  ]

5:                                                ; preds = %1, %1, %1, %1, %1, %1, %1, %1, %1, %1, %1, %1, %1
  store i1 true, ptr %2, align 1
  br label %7

6:                                                ; preds = %1
  store i1 false, ptr %2, align 1
  br label %7

7:                                                ; preds = %6, %5
  %8 = load i1, ptr %2, align 1
  ret i1 %8
}

; Function Attrs: inlinehint nounwind uwtable
define internal void @lxb_html_tree_acknowledge_token_self_closing(ptr noundef %0, ptr noundef %1) #3 {
  %3 = alloca ptr, align 8
  %4 = alloca ptr, align 8
  %5 = alloca i8, align 1
  store ptr %0, ptr %3, align 8, !tbaa !4
  store ptr %1, ptr %4, align 8, !tbaa !9
  %6 = load ptr, ptr %4, align 8, !tbaa !9
  %7 = getelementptr inbounds nuw %struct.lxb_html_token_t, ptr %6, i32 0, i32 11
  %8 = load i32, ptr %7, align 8, !tbaa !36
  %9 = and i32 %8, 2
  %10 = icmp eq i32 %9, 0
  br i1 %10, label %11, label %12

11:                                               ; preds = %2
  br label %24

12:                                               ; preds = %2
  call void @llvm.lifetime.start.p0(i64 1, ptr %5) #5
  %13 = load ptr, ptr %4, align 8, !tbaa !9
  %14 = getelementptr inbounds nuw %struct.lxb_html_token_t, ptr %13, i32 0, i32 10
  %15 = load i64, ptr %14, align 8, !tbaa !21
  %16 = call zeroext i1 @lxb_html_tag_is_void(i64 noundef %15)
  %17 = zext i1 %16 to i8
  store i8 %17, ptr %5, align 1, !tbaa !38
  %18 = load i8, ptr %5, align 1, !tbaa !38, !range !29, !noundef !30
  %19 = trunc i8 %18 to i1
  br i1 %19, label %23, label %20

20:                                               ; preds = %12
  %21 = load ptr, ptr %3, align 8, !tbaa !4
  %22 = load ptr, ptr %4, align 8, !tbaa !9
  call void @lxb_html_tree_parse_error(ptr noundef %21, ptr noundef %22, i32 noundef 11)
  br label %23

23:                                               ; preds = %20, %12
  call void @llvm.lifetime.end.p0(i64 1, ptr %5) #5
  br label %24

24:                                               ; preds = %23, %11
  ret void
}

; Function Attrs: inlinehint nounwind uwtable
define internal ptr @lxb_html_tree_open_elements_pop(ptr noundef %0) #3 {
  %2 = alloca ptr, align 8
  store ptr %0, ptr %2, align 8, !tbaa !4
  %3 = load ptr, ptr %2, align 8, !tbaa !4
  %4 = getelementptr inbounds nuw %struct.lxb_html_tree, ptr %3, i32 0, i32 4
  %5 = load ptr, ptr %4, align 8, !tbaa !44
  %6 = call ptr @lexbor_array_pop(ptr noundef %5)
  ret ptr %6
}

; Function Attrs: inlinehint nounwind uwtable
define internal zeroext i1 @lxb_html_tree_insertion_mode_in_body_svg(ptr noundef %0, ptr noundef %1) #3 {
  %3 = alloca i1, align 1
  %4 = alloca ptr, align 8
  %5 = alloca ptr, align 8
  %6 = alloca ptr, align 8
  %7 = alloca i32, align 4
  store ptr %0, ptr %4, align 8, !tbaa !4
  store ptr %1, ptr %5, align 8, !tbaa !9
  call void @llvm.lifetime.start.p0(i64 8, ptr %6) #5
  %8 = load ptr, ptr %4, align 8, !tbaa !4
  %9 = call i32 @lxb_html_tree_active_formatting_reconstruct_elements(ptr noundef %8)
  %10 = load ptr, ptr %4, align 8, !tbaa !4
  %11 = getelementptr inbounds nuw %struct.lxb_html_tree, ptr %10, i32 0, i32 18
  store i32 %9, ptr %11, align 8, !tbaa !25
  %12 = load ptr, ptr %4, align 8, !tbaa !4
  %13 = getelementptr inbounds nuw %struct.lxb_html_tree, ptr %12, i32 0, i32 18
  %14 = load i32, ptr %13, align 8, !tbaa !25
  %15 = icmp ne i32 %14, 0
  br i1 %15, label %16, label %19

16:                                               ; preds = %2
  %17 = load ptr, ptr %4, align 8, !tbaa !4
  %18 = call zeroext i1 @lxb_html_tree_process_abort(ptr noundef %17)
  store i1 %18, ptr %3, align 1
  store i32 1, ptr %7, align 4
  br label %48

19:                                               ; preds = %2
  %20 = load ptr, ptr %4, align 8, !tbaa !4
  %21 = getelementptr inbounds nuw %struct.lxb_html_tree, ptr %20, i32 0, i32 17
  store ptr @lxb_html_tree_adjust_attributes_svg, ptr %21, align 8, !tbaa !84
  %22 = load ptr, ptr %4, align 8, !tbaa !4
  %23 = load ptr, ptr %5, align 8, !tbaa !9
  %24 = call ptr @lxb_html_tree_insert_foreign_element(ptr noundef %22, ptr noundef %23, i64 noundef 4)
  store ptr %24, ptr %6, align 8, !tbaa !40
  %25 = load ptr, ptr %6, align 8, !tbaa !40
  %26 = icmp eq ptr %25, null
  br i1 %26, label %27, label %34

27:                                               ; preds = %19
  %28 = load ptr, ptr %4, align 8, !tbaa !4
  %29 = getelementptr inbounds nuw %struct.lxb_html_tree, ptr %28, i32 0, i32 17
  store ptr null, ptr %29, align 8, !tbaa !84
  %30 = load ptr, ptr %4, align 8, !tbaa !4
  %31 = getelementptr inbounds nuw %struct.lxb_html_tree, ptr %30, i32 0, i32 18
  store i32 2, ptr %31, align 8, !tbaa !25
  %32 = load ptr, ptr %4, align 8, !tbaa !4
  %33 = call zeroext i1 @lxb_html_tree_process_abort(ptr noundef %32)
  store i1 %33, ptr %3, align 1
  store i32 1, ptr %7, align 4
  br label %48

34:                                               ; preds = %19
  %35 = load ptr, ptr %4, align 8, !tbaa !4
  %36 = getelementptr inbounds nuw %struct.lxb_html_tree, ptr %35, i32 0, i32 17
  store ptr null, ptr %36, align 8, !tbaa !84
  %37 = load ptr, ptr %5, align 8, !tbaa !9
  %38 = getelementptr inbounds nuw %struct.lxb_html_token_t, ptr %37, i32 0, i32 11
  %39 = load i32, ptr %38, align 8, !tbaa !36
  %40 = and i32 %39, 2
  %41 = icmp ne i32 %40, 0
  br i1 %41, label %42, label %47

42:                                               ; preds = %34
  %43 = load ptr, ptr %4, align 8, !tbaa !4
  %44 = call ptr @lxb_html_tree_open_elements_pop(ptr noundef %43)
  %45 = load ptr, ptr %4, align 8, !tbaa !4
  %46 = load ptr, ptr %5, align 8, !tbaa !9
  call void @lxb_html_tree_acknowledge_token_self_closing(ptr noundef %45, ptr noundef %46)
  br label %47

47:                                               ; preds = %42, %34
  store i1 true, ptr %3, align 1
  store i32 1, ptr %7, align 4
  br label %48

48:                                               ; preds = %47, %27, %16
  call void @llvm.lifetime.end.p0(i64 8, ptr %6) #5
  %49 = load i1, ptr %3, align 1
  ret i1 %49
}