; Function Attrs: inlinehint nounwind uwtable
define internal fastcc zeroext i1 @lxb_html_tree_insertion_mode_in_body_svg(ptr noundef %0, ptr noundef %1) unnamed_addr #3 {
  %3 = tail call i32 @lxb_html_tree_active_formatting_reconstruct_elements(ptr noundef %0) #6
  %4 = getelementptr inbounds nuw i8, ptr %0, i64 112
  store i32 %3, ptr %4, align 8, !tbaa !22
  %.not = icmp eq i32 %3, 0
  br i1 %.not, label %7, label %5

5:                                                ; preds = %2
  %6 = tail call zeroext i1 @lxb_html_tree_process_abort(ptr noundef nonnull %0) #6
  br label %lxb_html_tree_acknowledge_token_self_closing.exit

7:                                                ; preds = %2
  %8 = getelementptr inbounds nuw i8, ptr %0, i64 104
  store ptr @lxb_html_tree_adjust_attributes_svg, ptr %8, align 8, !tbaa !77
  %9 = tail call ptr @lxb_html_tree_insert_foreign_element(ptr noundef nonnull %0, ptr noundef %1, i64 noundef 4) #6
  %10 = icmp eq ptr %9, null
  store ptr null, ptr %8, align 8, !tbaa !77
  br i1 %10, label %11, label %13

11:                                               ; preds = %7
  store i32 2, ptr %4, align 8, !tbaa !22
  %12 = tail call zeroext i1 @lxb_html_tree_process_abort(ptr noundef nonnull %0) #6
  br label %lxb_html_tree_acknowledge_token_self_closing.exit

13:                                               ; preds = %7
  %14 = getelementptr inbounds nuw i8, ptr %1, i64 88
  %15 = load i32, ptr %14, align 8, !tbaa !32
  %16 = and i32 %15, 2
  %.not17 = icmp eq i32 %16, 0
  br i1 %.not17, label %lxb_html_tree_acknowledge_token_self_closing.exit, label %17

17:                                               ; preds = %13
  %18 = getelementptr i8, ptr %0, i64 32
  %.val = load ptr, ptr %18, align 8, !tbaa !33
  %19 = tail call ptr @lexbor_array_pop(ptr noundef %.val) #6
  %20 = load i32, ptr %14, align 8, !tbaa !32
  %21 = and i32 %20, 2
  %22 = icmp eq i32 %21, 0
  br i1 %22, label %lxb_html_tree_acknowledge_token_self_closing.exit, label %23

23:                                               ; preds = %17
  %24 = getelementptr inbounds nuw i8, ptr %1, i64 80
  %25 = load i64, ptr %24, align 8, !tbaa !18
  switch i64 %25, label %lxb_html_tag_is_void.exit.i [
    i64 18, label %lxb_html_tree_acknowledge_token_self_closing.exit
    i64 23, label %lxb_html_tree_acknowledge_token_self_closing.exit
    i64 32, label %lxb_html_tree_acknowledge_token_self_closing.exit
    i64 40, label %lxb_html_tree_acknowledge_token_self_closing.exit
    i64 55, label %lxb_html_tree_acknowledge_token_self_closing.exit
    i64 100, label %lxb_html_tree_acknowledge_token_self_closing.exit
    i64 105, label %lxb_html_tree_acknowledge_token_self_closing.exit
    i64 106, label %lxb_html_tree_acknowledge_token_self_closing.exit
    i64 115, label %lxb_html_tree_acknowledge_token_self_closing.exit
    i64 124, label %lxb_html_tree_acknowledge_token_self_closing.exit
    i64 166, label %lxb_html_tree_acknowledge_token_self_closing.exit
    i64 188, label %lxb_html_tree_acknowledge_token_self_closing.exit
    i64 194, label %lxb_html_tree_acknowledge_token_self_closing.exit
  ]

lxb_html_tag_is_void.exit.i:                      ; preds = %23
  tail call void @lxb_html_tree_parse_error(ptr noundef nonnull %0, ptr noundef nonnull %1, i32 noundef 11) #6
  br label %lxb_html_tree_acknowledge_token_self_closing.exit

lxb_html_tree_acknowledge_token_self_closing.exit: ; preds = %lxb_html_tag_is_void.exit.i, %23, %23, %23, %23, %23, %23, %23, %23, %23, %23, %23, %23, %23, %17, %13, %11, %5
  %.0 = phi i1 [ %6, %5 ], [ %12, %11 ], [ true, %13 ], [ true, %17 ], [ true, %23 ], [ true, %23 ], [ true, %23 ], [ true, %23 ], [ true, %23 ], [ true, %23 ], [ true, %23 ], [ true, %23 ], [ true, %23 ], [ true, %23 ], [ true, %23 ], [ true, %23 ], [ true, %23 ], [ true, %lxb_html_tag_is_void.exit.i ]
  ret i1 %.0
}